target datalayout = "e-m:e-p270:32:32-p271:32:32-p272:64:64-i64:64-i128:128-f80:128-n8:16:32:64-S128"
target triple = "x86_64-pc-linux-gnu"

%struct.jv = type { i8, i8, i16, i32, %union.anon }
%union.anon = type { ptr }
%struct.jv_refcnt = type { i32 }
%struct.decNumber = type { i32, i32, i8, [1 x i16] }
%struct.jvp_literal_number = type { %struct.jv_refcnt, double, ptr, %struct.decNumber }
%struct.decContext = type { i32, i32, i32, i32, i32, i32, i8 }
%struct.decNumberDoublePrecision = type { %struct.decNumber, [6 x i16] }

@JV_REFCNT_INIT = internal constant %struct.jv_refcnt { i32 1 }, align 4
@dec_ctx_key = internal global i32 0, align 4

; Function Attrs: nounwind uwtable
define internal double @jvp_literal_number_to_double(i64 %0, ptr %1) #0 {
  %3 = alloca %struct.jv, align 8
  %4 = alloca %struct.decContext, align 4
  %5 = alloca ptr, align 8
  %6 = alloca %struct.decNumberDoublePrecision, align 4
  %7 = alloca [32 x i8], align 16
  %8 = alloca ptr, align 8
  %9 = getelementptr inbounds nuw { i64, ptr }, ptr %3, i32 0, i32 0
  store i64 %0, ptr %9, align 8
  %10 = getelementptr inbounds nuw { i64, ptr }, ptr %3, i32 0, i32 1
  store ptr %1, ptr %10, align 8
  call void @llvm.lifetime.start.p0(i64 28, ptr %4) #11
  %11 = call ptr @decContextDefault(ptr noundef %4, i32 noundef 64)
  %12 = getelementptr inbounds nuw %struct.decContext, ptr %4, i32 0, i32 0
  store i32 17, ptr %12, align 4, !tbaa !36
  call void @llvm.lifetime.start.p0(i64 8, ptr %5) #11
  %13 = getelementptr inbounds nuw { i64, ptr }, ptr %3, i32 0, i32 0
  %14 = load i64, ptr %13, align 8
  %15 = getelementptr inbounds nuw { i64, ptr }, ptr %3, i32 0, i32 1
  %16 = load ptr, ptr %15, align 8
  %17 = call ptr @jvp_dec_number_ptr(i64 %14, ptr %16)
  store ptr %17, ptr %5, align 8, !tbaa !14
  call void @llvm.lifetime.start.p0(i64 24, ptr %6) #11
  call void @llvm.lifetime.start.p0(i64 32, ptr %7) #11
  %18 = getelementptr inbounds nuw %struct.decNumberDoublePrecision, ptr %6, i32 0, i32 0
  %19 = load ptr, ptr %5, align 8, !tbaa !14
  %20 = call ptr @decNumberReduce(ptr noundef %18, ptr noundef %19, ptr noundef %4)
  %21 = getelementptr inbounds nuw %struct.decNumberDoublePrecision, ptr %6, i32 0, i32 0
  %22 = getelementptr inbounds [32 x i8], ptr %7, i64 0, i64 0
  %23 = call ptr @decNumberToString(ptr noundef %21, ptr noundef %22)
  call void @llvm.lifetime.start.p0(i64 8, ptr %8) #11
  %24 = call ptr (...) @tsd_dtoa_context_get()
  %25 = getelementptr inbounds [32 x i8], ptr %7, i64 0, i64 0
  %26 = call double @jvp_strtod(ptr noundef %24, ptr noundef %25, ptr noundef %8)
  call void @llvm.lifetime.end.p0(i64 8, ptr %8) #11
  call void @llvm.lifetime.end.p0(i64 32, ptr %7) #11
  call void @llvm.lifetime.end.p0(i64 24, ptr %6) #11
  call void @llvm.lifetime.end.p0(i64 8, ptr %5) #11
  call void @llvm.lifetime.end.p0(i64 28, ptr %4) #11
  ret double %26
}

; Function Attrs: nounwind uwtable
define internal ptr @jvp_literal_number_ptr(i64 %0, ptr %1) #0 {
  %3 = alloca %struct.jv, align 8
  %4 = getelementptr inbounds nuw { i64, ptr }, ptr %3, i32 0, i32 0
  store i64 %0, ptr %4, align 8
  %5 = getelementptr inbounds nuw { i64, ptr }, ptr %3, i32 0, i32 1
  store ptr %1, ptr %5, align 8
  %6 = getelementptr inbounds nuw %struct.jv, ptr %3, i32 0, i32 4
  %7 = load ptr, ptr %6, align 8, !tbaa !12
  ret ptr %7
}

; Function Attrs: nounwind uwtable
define dso_local { i64, ptr } @jv_number(double noundef %0) #0 {
  %2 = alloca %struct.jv, align 8
  %3 = alloca double, align 8
  store double %0, ptr %3, align 8, !tbaa !34
  %4 = getelementptr inbounds nuw %struct.jv, ptr %2, i32 0, i32 0
  store i8 4, ptr %4, align 8, !tbaa !4
  %5 = getelementptr inbounds nuw %struct.jv, ptr %2, i32 0, i32 1
  store i8 0, ptr %5, align 1, !tbaa !17
  %6 = getelementptr inbounds nuw %struct.jv, ptr %2, i32 0, i32 2
  store i16 0, ptr %6, align 2, !tbaa !18
  %7 = getelementptr inbounds nuw %struct.jv, ptr %2, i32 0, i32 3
  store i32 0, ptr %7, align 4, !tbaa !19
  %8 = getelementptr inbounds nuw %struct.jv, ptr %2, i32 0, i32 4
  %9 = load double, ptr %3, align 8, !tbaa !34
  store double %9, ptr %8, align 8, !tbaa !12
  %10 = load { i64, ptr }, ptr %2, align 8
  ret { i64, ptr } %10
}

; Function Attrs: nounwind uwtable
define dso_local double @jv_number_value(i64 %0, ptr %1) #0 {
  %3 = alloca double, align 8
  %4 = alloca %struct.jv, align 8
  %5 = alloca ptr, align 8
  %6 = getelementptr inbounds nuw { i64, ptr }, ptr %4, i32 0, i32 0
  store i64 %0, ptr %6, align 8
  %7 = getelementptr inbounds nuw { i64, ptr }, ptr %4, i32 0, i32 1
  store ptr %1, ptr %7, align 8
  %8 = getelementptr inbounds nuw %struct.jv, ptr %4, i32 0, i32 0
  %9 = load i8, ptr %8, align 8, !tbaa !4
  %10 = zext i8 %9 to i32
  %11 = icmp eq i32 %10, 148
  br i1 %11, label %12, label %34

12:                                               ; preds = %2
  call void @llvm.lifetime.start.p0(i64 8, ptr %5) #11
  %13 = getelementptr inbounds nuw { i64, ptr }, ptr %4, i32 0, i32 0
  %14 = load i64, ptr %13, align 8
  %15 = getelementptr inbounds nuw { i64, ptr }, ptr %4, i32 0, i32 1
  %16 = load ptr, ptr %15, align 8
  %17 = call ptr @jvp_literal_number_ptr(i64 %14, ptr %16)
  store ptr %17, ptr %5, align 8, !tbaa !14
  %18 = load ptr, ptr %5, align 8, !tbaa !14
  %19 = getelementptr inbounds nuw %struct.jvp_literal_number, ptr %18, i32 0, i32 1
  %20 = load double, ptr %19, align 8, !tbaa !35
  %21 = call i1 @llvm.is.fpclass.f64(double %20, i32 3)
  br i1 %21, label %22, label %30

22:                                               ; preds = %12
  %23 = getelementptr inbounds nuw { i64, ptr }, ptr %4, i32 0, i32 0
  %24 = load i64, ptr %23, align 8
  %25 = getelementptr inbounds nuw { i64, ptr }, ptr %4, i32 0, i32 1
  %26 = load ptr, ptr %25, align 8
  %27 = call double @jvp_literal_number_to_double(i64 %24, ptr %26)
  %28 = load ptr, ptr %5, align 8, !tbaa !14
  %29 = getelementptr inbounds nuw %struct.jvp_literal_number, ptr %28, i32 0, i32 1
  store double %27, ptr %29, align 8, !tbaa !35
  br label %30

30:                                               ; preds = %22, %12
  %31 = load ptr, ptr %5, align 8, !tbaa !14
  %32 = getelementptr inbounds nuw %struct.jvp_literal_number, ptr %31, i32 0, i32 1
  %33 = load double, ptr %32, align 8, !tbaa !35
  store double %33, ptr %3, align 8
  call void @llvm.lifetime.end.p0(i64 8, ptr %5) #11
  br label %37

34:                                               ; preds = %2
  %35 = getelementptr inbounds nuw %struct.jv, ptr %4, i32 0, i32 4
  %36 = load double, ptr %35, align 8, !tbaa !12
  store double %36, ptr %3, align 8
  br label %37

37:                                               ; preds = %34, %30
  %38 = load double, ptr %3, align 8
  ret double %38
}

; Function Attrs: nounwind uwtable
define internal ptr @jvp_literal_number_alloc(i32 noundef %0) #0 {
  %2 = alloca i32, align 4
  %3 = alloca i32, align 4
  %4 = alloca ptr, align 8
  store i32 %0, ptr %2, align 4, !tbaa !10
  call void @llvm.lifetime.start.p0(i64 4, ptr %3) #11
  %5 = load i32, ptr %2, align 4, !tbaa !10
  %6 = add i32 %5, 3
  %7 = sub i32 %6, 1
  %8 = udiv i32 %7, 3
  store i32 %8, ptr %3, align 4, !tbaa !10
  call void @llvm.lifetime.start.p0(i64 8, ptr %4) #11
  %9 = load i32, ptr %3, align 4, !tbaa !10
  %10 = sext i32 %9 to i64
  %11 = mul i64 2, %10
  %12 = add i64 40, %11
  %13 = call ptr @jv_mem_alloc(i64 noundef %12)
  store ptr %13, ptr %4, align 8, !tbaa !14
  %14 = load ptr, ptr %4, align 8, !tbaa !14
  %15 = getelementptr inbounds nuw %struct.jvp_literal_number, ptr %14, i32 0, i32 0
  call void @llvm.memcpy.p0.p0.i64(ptr align 8 %15, ptr align 4 @JV_REFCNT_INIT, i64 4, i1 false), !tbaa.struct !16
  %16 = load ptr, ptr %4, align 8, !tbaa !14
  %17 = getelementptr inbounds nuw %struct.jvp_literal_number, ptr %16, i32 0, i32 1
  store double 0x7FF8000000000000, ptr %17, align 8, !tbaa !35
  %18 = load ptr, ptr %4, align 8, !tbaa !14
  %19 = getelementptr inbounds nuw %struct.jvp_literal_number, ptr %18, i32 0, i32 2
  store ptr null, ptr %19, align 8, !tbaa !24
  %20 = load ptr, ptr %4, align 8, !tbaa !14
  call void @llvm.lifetime.end.p0(i64 8, ptr %4) #11
  call void @llvm.lifetime.end.p0(i64 4, ptr %3) #11
  ret ptr %20
}

; Function Attrs: nounwind uwtable
define internal ptr @jvp_dec_number_ptr(i64 %0, ptr %1) #0 {
  %3 = alloca %struct.jv, align 8
  %4 = getelementptr inbounds nuw { i64, ptr }, ptr %3, i32 0, i32 0
  store i64 %0, ptr %4, align 8
  %5 = getelementptr inbounds nuw { i64, ptr }, ptr %3, i32 0, i32 1
  store ptr %1, ptr %5, align 8
  %6 = getelementptr inbounds nuw %struct.jv, ptr %3, i32 0, i32 4
  %7 = load ptr, ptr %6, align 8, !tbaa !12
  %8 = getelementptr inbounds nuw %struct.jvp_literal_number, ptr %7, i32 0, i32 3
  ret ptr %8
}

; Function Attrs: nounwind uwtable
define dso_local { i64, ptr } @jv_number_negate(i64 %0, ptr %1) #0 {
  %3 = alloca %struct.jv, align 8
  %4 = alloca %struct.jv, align 8
  %5 = alloca ptr, align 8
  %6 = getelementptr inbounds nuw { i64, ptr }, ptr %4, i32 0, i32 0
  store i64 %0, ptr %6, align 8
  %7 = getelementptr inbounds nuw { i64, ptr }, ptr %4, i32 0, i32 1
  store ptr %1, ptr %7, align 8
  %8 = getelementptr inbounds nuw %struct.jv, ptr %4, i32 0, i32 0
  %9 = load i8, ptr %8, align 8, !tbaa !4
  %10 = zext i8 %9 to i32
  %11 = icmp eq i32 %10, 148
  br i1 %11, label %12, label %37

12:                                               ; preds = %2
  call void @llvm.lifetime.start.p0(i64 8, ptr %5) #11
  %13 = getelementptr inbounds nuw { i64, ptr }, ptr %4, i32 0, i32 0
  %14 = load i64, ptr %13, align 8
  %15 = getelementptr inbounds nuw { i64, ptr }, ptr %4, i32 0, i32 1
  %16 = load ptr, ptr %15, align 8
  %17 = call ptr @jvp_dec_number_ptr(i64 %14, ptr %16)
  %18 = getelementptr inbounds nuw %struct.decNumber, ptr %17, i32 0, i32 0
  %19 = load i32, ptr %18, align 4, !tbaa !29
  %20 = call ptr @jvp_literal_number_alloc(i32 noundef %19)
  store ptr %20, ptr %5, align 8, !tbaa !14
  %21 = load ptr, ptr %5, align 8, !tbaa !14
  %22 = getelementptr inbounds nuw %struct.jvp_literal_number, ptr %21, i32 0, i32 3
  %23 = getelementptr inbounds nuw { i64, ptr }, ptr %4, i32 0, i32 0
  %24 = load i64, ptr %23, align 8
  %25 = getelementptr inbounds nuw { i64, ptr }, ptr %4, i32 0, i32 1
  %26 = load ptr, ptr %25, align 8
  %27 = call ptr @jvp_dec_number_ptr(i64 %24, ptr %26)
  %28 = call ptr @tsd_dec_ctx_get(ptr noundef @dec_ctx_key)
  %29 = call ptr @decNumberMinus(ptr noundef %22, ptr noundef %27, ptr noundef %28)
  %30 = getelementptr inbounds nuw %struct.jv, ptr %3, i32 0, i32 0
  store i8 -108, ptr %30, align 8, !tbaa !4
  %31 = getelementptr inbounds nuw %struct.jv, ptr %3, i32 0, i32 1
  store i8 0, ptr %31, align 1, !tbaa !17
  %32 = getelementptr inbounds nuw %struct.jv, ptr %3, i32 0, i32 2
  store i16 0, ptr %32, align 2, !tbaa !18
  %33 = getelementptr inbounds nuw %struct.jv, ptr %3, i32 0, i32 3
  store i32 0, ptr %33, align 4, !tbaa !19
  %34 = getelementptr inbounds nuw %struct.jv, ptr %3, i32 0, i32 4
  %35 = load ptr, ptr %5, align 8, !tbaa !14
  %36 = getelementptr inbounds nuw %struct.jvp_literal_number, ptr %35, i32 0, i32 0
  store ptr %36, ptr %34, align 8, !tbaa !12
  call void @llvm.lifetime.end.p0(i64 8, ptr %5) #11
  br label %49

37:                                               ; preds = %2
  %38 = getelementptr inbounds nuw { i64, ptr }, ptr %4, i32 0, i32 0
  %39 = load i64, ptr %38, align 8
  %40 = getelementptr inbounds nuw { i64, ptr }, ptr %4, i32 0, i32 1
  %41 = load ptr, ptr %40, align 8
  %42 = call double @jv_number_value(i64 %39, ptr %41)
  %43 = fneg double %42
  %44 = call { i64, ptr } @jv_number(double noundef %43)
  %45 = getelementptr inbounds nuw { i64, ptr }, ptr %3, i32 0, i32 0
  %46 = extractvalue { i64, ptr } %44, 0
  store i64 %46, ptr %45, align 8
  %47 = getelementptr inbounds nuw { i64, ptr }, ptr %3, i32 0, i32 1
  %48 = extractvalue { i64, ptr } %44, 1
  store ptr %48, ptr %47, align 8
  br label %49

49:                                               ; preds = %37, %12
  %50 = load { i64, ptr }, ptr %3, align 8
  ret { i64, ptr } %50
}