; Function Attrs: nounwind uwtable
define dso_local { i64, ptr } @jv_number_negate(i64 %0, ptr %1) local_unnamed_addr #2 {
  %3 = and i64 %0, 255
  %4 = icmp eq i64 %3, 148
  br i1 %4, label %5, label %jv_number_value.exit

5:                                                ; preds = %2
  %6 = getelementptr inbounds nuw i8, ptr %1, i64 24
  %7 = load i32, ptr %6, align 4, !tbaa !23
  %8 = add i32 %7, 2
  %9 = udiv i32 %8, 3
  %10 = shl nuw i32 %9, 1
  %11 = zext i32 %10 to i64
  %12 = add nuw nsw i64 %11, 40
  %13 = tail call ptr @jv_mem_alloc(i64 noundef %12) #25
  store i32 1, ptr %13, align 8, !tbaa !4
  %14 = getelementptr inbounds nuw i8, ptr %13, i64 8
  store double 0x7FF8000000000000, ptr %14, align 8, !tbaa !24
  %15 = getelementptr inbounds nuw i8, ptr %13, i64 16
  store ptr null, ptr %15, align 8, !tbaa !14
  %16 = getelementptr inbounds nuw i8, ptr %13, i64 24
  %17 = tail call fastcc ptr @tsd_dec_ctx_get()
  %18 = tail call ptr @decNumberMinus(ptr noundef nonnull %16, ptr noundef nonnull %6, ptr noundef %17) #25
  br label %24

jv_number_value.exit:                             ; preds = %2
  %19 = ptrtoint ptr %1 to i64
  %20 = bitcast i64 %19 to double
  %21 = fneg double %20
  %22 = bitcast double %21 to i64
  %23 = inttoptr i64 %22 to ptr
  br label %24

24:                                               ; preds = %jv_number_value.exit, %5
  %.sroa.026.0 = phi i64 [ 148, %5 ], [ 4, %jv_number_value.exit ]
  %.sroa.6.0 = phi ptr [ %13, %5 ], [ %23, %jv_number_value.exit ]
  %.fca.0.insert = insertvalue { i64, ptr } poison, i64 %.sroa.026.0, 0
  %.fca.1.insert = insertvalue { i64, ptr } %.fca.0.insert, ptr %.sroa.6.0, 1
  ret { i64, ptr } %.fca.1.insert
}